target datalayout = "e-m:e-p270:32:32-p271:32:32-p272:64:64-i64:64-i128:128-f80:128-n8:16:32:64-S128"
target triple = "x86_64-pc-linux-gnu"

%struct._zval_struct = type { %union._zend_value, %union.anon.9, %union.anon.12 }
%union._zend_value = type { i64 }
%union.anon.9 = type { i32 }
%union.anon.12 = type { i32 }
%struct._zend_array = type { %struct._zend_refcounted_h, %union.anon.1, i32, %union.anon.2, i32, i32, i32, i32, i64, ptr }
%struct._zend_refcounted_h = type { i32, %union.anon.0 }
%union.anon.0 = type { i32 }
%union.anon.1 = type { i32 }
%union.anon.2 = type { ptr }
%struct._zend_module_entry = type { i16, i32, i8, i8, ptr, ptr, ptr, ptr, ptr, ptr, ptr, ptr, ptr, ptr, i64, ptr, ptr, ptr, ptr, i32, i8, ptr, i32, ptr }
%struct._zend_class_entry = type { i8, ptr, %union.anon, i32, i32, i32, i32, ptr, ptr, ptr, %struct._zend_array, %struct._zend_array, %struct._zend_array, ptr, ptr, ptr, ptr, ptr, ptr, ptr, ptr, ptr, ptr, ptr, ptr, ptr, ptr, ptr, ptr, ptr, ptr, ptr, %union.anon.3, ptr, ptr, ptr, ptr, i32, i32, %union.anon.4, ptr, ptr, ptr, ptr, i32, ptr, ptr, %union.anon.5 }
%union.anon = type { ptr }
%union.anon.3 = type { ptr }
%union.anon.4 = type { ptr }
%union.anon.5 = type { %struct.anon.6 }
%struct.anon.6 = type { ptr, i32, i32 }
%struct._dom_object = type { ptr, ptr, ptr, %struct._zend_object }
%struct._zend_object = type { %struct._zend_refcounted_h, i32, ptr, ptr, ptr, [1 x %struct._zval_struct] }
%struct.anon.7 = type { ptr, ptr }

@classes = internal global %struct._zend_array zeroinitializer, align 8

; Function Attrs: nounwind uwtable
define internal void @dom_objects_set_class_ex(ptr noundef %0, ptr noundef %1) #0 {
  %3 = alloca ptr, align 8
  %4 = alloca ptr, align 8
  %5 = alloca ptr, align 8
  %6 = alloca ptr, align 8
  %7 = alloca ptr, align 8
  %8 = alloca ptr, align 8
  %9 = alloca ptr, align 8
  store ptr %0, ptr %7, align 8
  store ptr %1, ptr %8, align 8
  %10 = load ptr, ptr %7, align 8
  store ptr %10, ptr %9, align 8
  br label %11

11:                                               ; preds = %33, %2
  %12 = load ptr, ptr %9, align 8
  %13 = getelementptr inbounds %struct._zend_class_entry, ptr %12, i32 0, i32 0
  %14 = load i8, ptr %13, align 8
  %15 = sext i8 %14 to i32
  %16 = icmp ne i32 %15, 1
  br i1 %16, label %26, label %17

17:                                               ; preds = %11
  %18 = load ptr, ptr %9, align 8
  %19 = getelementptr inbounds %struct._zend_class_entry, ptr %18, i32 0, i32 47
  %20 = getelementptr inbounds %struct.anon.7, ptr %19, i32 0, i32 1
  %21 = load ptr, ptr %20, align 8
  %22 = getelementptr inbounds %struct._zend_module_entry, ptr %21, i32 0, i32 22
  %23 = load i32, ptr %22, align 8
  %24 = load i32, ptr getelementptr inbounds (%struct._zend_module_entry, ptr @dom_module_entry, i32 0, i32 22), align 8
  %25 = icmp ne i32 %23, %24
  br i1 %25, label %26, label %31

26:                                               ; preds = %17, %11
  %27 = load ptr, ptr %9, align 8
  %28 = getelementptr inbounds %struct._zend_class_entry, ptr %27, i32 0, i32 2
  %29 = load ptr, ptr %28, align 8
  %30 = icmp ne ptr %29, null
  br label %31

31:                                               ; preds = %26, %17
  %32 = phi i1 [ false, %17 ], [ %30, %26 ]
  br i1 %32, label %33, label %37

33:                                               ; preds = %31
  %34 = load ptr, ptr %9, align 8
  %35 = getelementptr inbounds %struct._zend_class_entry, ptr %34, i32 0, i32 2
  %36 = load ptr, ptr %35, align 8
  store ptr %36, ptr %9, align 8
  br label %11

37:                                               ; preds = %31
  %38 = load ptr, ptr %9, align 8
  %39 = getelementptr inbounds %struct._zend_class_entry, ptr %38, i32 0, i32 1
  %40 = load ptr, ptr %39, align 8
  store ptr @classes, ptr %4, align 8
  store ptr %40, ptr %5, align 8
  %41 = load ptr, ptr %4, align 8
  %42 = load ptr, ptr %5, align 8
  %43 = call ptr @zend_hash_find(ptr noundef %41, ptr noundef %42) #12
  store ptr %43, ptr %6, align 8
  %44 = load ptr, ptr %6, align 8
  %45 = icmp ne ptr %44, null
  br i1 %45, label %46, label %52

46:                                               ; preds = %37
  %47 = load ptr, ptr %6, align 8
  %48 = load ptr, ptr %47, align 8
  %49 = icmp ne ptr %48, null
  call void @llvm.assume(i1 %49)
  %50 = load ptr, ptr %6, align 8
  %51 = load ptr, ptr %50, align 8
  store ptr %51, ptr %3, align 8
  br label %53

52:                                               ; preds = %37
  store ptr null, ptr %3, align 8
  br label %53

53:                                               ; preds = %52, %46
  %54 = load ptr, ptr %3, align 8
  %55 = load ptr, ptr %8, align 8
  %56 = getelementptr inbounds %struct._dom_object, ptr %55, i32 0, i32 2
  store ptr %54, ptr %56, align 8
  %57 = load ptr, ptr %8, align 8
  %58 = getelementptr inbounds %struct._dom_object, ptr %57, i32 0, i32 3
  %59 = load ptr, ptr %7, align 8
  call void @zend_object_std_init(ptr noundef %58, ptr noundef %59)
  %60 = load ptr, ptr %8, align 8
  %61 = getelementptr inbounds %struct._dom_object, ptr %60, i32 0, i32 3
  %62 = load ptr, ptr %7, align 8
  call void @object_properties_init(ptr noundef %61, ptr noundef %62)
  ret void
}

; Function Attrs: nounwind uwtable
define internal ptr @dom_objects_set_class(ptr noundef %0) #0 {
  %2 = alloca ptr, align 8
  %3 = alloca i64, align 8
  %4 = alloca ptr, align 8
  %5 = alloca ptr, align 8
  %6 = alloca ptr, align 8
  %7 = alloca ptr, align 8
  store ptr %0, ptr %6, align 8
  %8 = load ptr, ptr %6, align 8
  store i64 80, ptr %3, align 8
  store ptr %8, ptr %4, align 8
  %9 = load i64, ptr %3, align 8
  %10 = load ptr, ptr %4, align 8
  store ptr %10, ptr %2, align 8
  %11 = load ptr, ptr %2, align 8
  %12 = getelementptr inbounds %struct._zend_class_entry, ptr %11, i32 0, i32 5
  %13 = load i32, ptr %12, align 8
  %14 = load ptr, ptr %2, align 8
  %15 = getelementptr inbounds %struct._zend_class_entry, ptr %14, i32 0, i32 4
  %16 = load i32, ptr %15, align 4
  %17 = and i32 %16, 2048
  %18 = icmp ne i32 %17, 0
  %19 = select i1 %18, i32 0, i32 1
  %20 = sub nsw i32 %13, %19
  %21 = sext i32 %20 to i64
  %22 = mul i64 16, %21
  %23 = add i64 %9, %22
  %24 = call noalias ptr @_emalloc(i64 noundef %23) #14
  store ptr %24, ptr %5, align 8
  %25 = load ptr, ptr %5, align 8
  %26 = load i64, ptr %3, align 8
  %27 = sub i64 %26, 56
  call void @llvm.memset.p0.i64(ptr align 1 %25, i8 0, i64 %27, i1 false)
  %28 = load ptr, ptr %5, align 8
  store ptr %28, ptr %7, align 8
  %29 = load ptr, ptr %6, align 8
  %30 = load ptr, ptr %7, align 8
  call void @dom_objects_set_class_ex(ptr noundef %29, ptr noundef %30)
  %31 = load ptr, ptr %7, align 8
  ret ptr %31
}